target datalayout = "e-m:e-p270:32:32-p271:32:32-p272:64:64-i64:64-i128:128-f80:128-n8:16:32:64-S128"
target triple = "x86_64-pc-linux-gnu"

%"class.icu_77::UObject" = type { ptr }
%"class.icu_77::UnicodeString" = type { %"class.icu_77::Replaceable", %"union.icu_77::UnicodeString::StackBufferOrFields" }
%"class.icu_77::Replaceable" = type { %"class.icu_77::UObject" }
%"union.icu_77::UnicodeString::StackBufferOrFields" = type { %struct.anon.0, [32 x i8] }
%struct.anon.0 = type { i16, i32, i32, ptr }
%"class.icu_77::Formattable" = type { %"class.icu_77::UObject", %union.anon, ptr, ptr, i32, %"class.icu_77::UnicodeString" }
%union.anon = type { %struct.anon.1 }
%struct.anon.1 = type { ptr, i32 }
%"class.icu_77::ArgExtractor" = type <{ ptr, [4 x i16], i8, [7 x i8] }>
%"class.icu_77::Measure" = type { %"class.icu_77::UObject", %"class.icu_77::Formattable", ptr }
%"class.icu_77::CurrencyUnit" = type { %"class.icu_77::MeasureUnit.base", [4 x i16], [4 x i8] }
%"class.icu_77::MeasureUnit.base" = type <{ %"class.icu_77::UObject", ptr, i16, i8 }>

@_ZTIN6icu_777UObjectE = external constant ptr
@_ZTIN6icu_7714CurrencyAmountE = external constant ptr

; Function Attrs: inlinehint mustprogress nounwind uwtable
define linkonce_odr noundef ptr @_ZNK6icu_7712CurrencyUnit14getISOCurrencyEv(ptr noundef nonnull align 8 dereferenceable(28) %0) #2 comdat align 2 {
  %2 = alloca ptr, align 8
  store ptr %0, ptr %2, align 8, !tbaa !217
  %3 = load ptr, ptr %2, align 8
  %4 = getelementptr inbounds nuw %"class.icu_77::CurrencyUnit", ptr %3, i32 0, i32 1
  %5 = getelementptr inbounds [4 x i16], ptr %4, i64 0, i64 0
  ret ptr %5
}

; Function Attrs: inlinehint mustprogress nounwind uwtable
define linkonce_odr noundef nonnull align 8 dereferenceable(112) ptr @_ZNK6icu_777Measure9getNumberEv(ptr noundef nonnull align 8 dereferenceable(128) %0) #2 comdat align 2 {
  %2 = alloca ptr, align 8
  store ptr %0, ptr %2, align 8, !tbaa !83
  %3 = load ptr, ptr %2, align 8
  %4 = getelementptr inbounds nuw %"class.icu_77::Measure", ptr %3, i32 0, i32 1
  ret ptr %4
}

; Function Attrs: inlinehint mustprogress uwtable
define linkonce_odr noundef ptr @_ZNK6icu_7714CurrencyAmount14getISOCurrencyEv(ptr noundef nonnull align 8 dereferenceable(128) %0) #3 comdat align 2 {
  %2 = alloca ptr, align 8
  store ptr %0, ptr %2, align 8, !tbaa !81
  %3 = load ptr, ptr %2, align 8
  %4 = call noundef nonnull align 8 dereferenceable(28) ptr @_ZNK6icu_7714CurrencyAmount11getCurrencyEv(ptr noundef nonnull align 8 dereferenceable(128) %3)
  %5 = call noundef ptr @_ZNK6icu_7712CurrencyUnit14getISOCurrencyEv(ptr noundef nonnull align 8 dereferenceable(28) %4)
  ret ptr %5
}

; Function Attrs: mustprogress uwtable
define void @_ZN6icu_7712ArgExtractorC2ERKNS_12NumberFormatERKNS_11FormattableER10UErrorCode(ptr noundef nonnull align 8 dereferenceable(17) %0, ptr noundef nonnull align 8 dereferenceable(60) %1, ptr noundef nonnull align 8 dereferenceable(112) %2, ptr noundef nonnull align 4 dereferenceable(4) %3) unnamed_addr #1 align 2 {
  %5 = alloca ptr, align 8
  %6 = alloca ptr, align 8
  %7 = alloca ptr, align 8
  %8 = alloca ptr, align 8
  %9 = alloca ptr, align 8
  %10 = alloca ptr, align 8
  store ptr %0, ptr %5, align 8, !tbaa !72
  store ptr %1, ptr %6, align 8, !tbaa !40
  store ptr %2, ptr %7, align 8, !tbaa !74
  store ptr %3, ptr %8, align 8, !tbaa !22
  %11 = load ptr, ptr %5, align 8
  %12 = getelementptr inbounds nuw %"class.icu_77::ArgExtractor", ptr %11, i32 0, i32 0
  %13 = load ptr, ptr %7, align 8, !tbaa !74
  store ptr %13, ptr %12, align 8, !tbaa !76
  %14 = getelementptr inbounds nuw %"class.icu_77::ArgExtractor", ptr %11, i32 0, i32 2
  store i8 0, ptr %14, align 8, !tbaa !78
  call void @llvm.lifetime.start.p0(i64 8, ptr %9) #15
  %15 = load ptr, ptr %7, align 8, !tbaa !74
  %16 = call noundef ptr @_ZNK6icu_7711Formattable9getObjectEv(ptr noundef nonnull align 8 dereferenceable(112) %15)
  store ptr %16, ptr %9, align 8, !tbaa !79
  call void @llvm.lifetime.start.p0(i64 8, ptr %10) #15
  %17 = load ptr, ptr %9, align 8, !tbaa !79
  %18 = icmp ne ptr %17, null
  br i1 %18, label %19, label %38

19:                                               ; preds = %4
  %20 = load ptr, ptr %9, align 8, !tbaa !79
  %21 = icmp eq ptr %20, null
  br i1 %21, label %24, label %22

22:                                               ; preds = %19
  %23 = call ptr @__dynamic_cast(ptr %20, ptr @_ZTIN6icu_777UObjectE, ptr @_ZTIN6icu_7714CurrencyAmountE, i64 0) #15
  br label %25

24:                                               ; preds = %19
  br label %25

25:                                               ; preds = %24, %22
  %26 = phi ptr [ %23, %22 ], [ null, %24 ]
  store ptr %26, ptr %10, align 8, !tbaa !81
  %27 = icmp ne ptr %26, null
  br i1 %27, label %28, label %38

28:                                               ; preds = %25
  %29 = getelementptr inbounds nuw %"class.icu_77::ArgExtractor", ptr %11, i32 0, i32 1
  %30 = getelementptr inbounds [4 x i16], ptr %29, i64 0, i64 0
  %31 = load ptr, ptr %10, align 8, !tbaa !81
  %32 = call noundef ptr @_ZNK6icu_7714CurrencyAmount14getISOCurrencyEv(ptr noundef nonnull align 8 dereferenceable(128) %31)
  %33 = call ptr @u_strcpy_77(ptr noundef %30, ptr noundef %32)
  %34 = load ptr, ptr %10, align 8, !tbaa !81
  %35 = call noundef nonnull align 8 dereferenceable(112) ptr @_ZNK6icu_777Measure9getNumberEv(ptr noundef nonnull align 8 dereferenceable(128) %34)
  %36 = getelementptr inbounds nuw %"class.icu_77::ArgExtractor", ptr %11, i32 0, i32 0
  store ptr %35, ptr %36, align 8, !tbaa !76
  %37 = getelementptr inbounds nuw %"class.icu_77::ArgExtractor", ptr %11, i32 0, i32 2
  store i8 1, ptr %37, align 8, !tbaa !78
  br label %41

38:                                               ; preds = %25, %4
  %39 = getelementptr inbounds nuw %"class.icu_77::ArgExtractor", ptr %11, i32 0, i32 1
  %40 = getelementptr inbounds [4 x i16], ptr %39, i64 0, i64 0
  store i16 0, ptr %40, align 8, !tbaa !54
  br label %41

41:                                               ; preds = %38, %28
  call void @llvm.lifetime.end.p0(i64 8, ptr %10) #15
  call void @llvm.lifetime.end.p0(i64 8, ptr %9) #15
  ret void
}