; Function Attrs: mustprogress uwtable
define void @_ZN6icu_7712ArgExtractorC2ERKNS_12NumberFormatERKNS_11FormattableER10UErrorCode(ptr noundef nonnull align 8 dereferenceable(17) initializes((0, 8), (16, 17)) %0, ptr nonnull readnone align 8 captures(none) %1, ptr noundef nonnull align 8 dereferenceable(112) %2, ptr nonnull readnone align 4 captures(none) %3) unnamed_addr #1 align 2 {
  store ptr %2, ptr %0, align 8, !tbaa !45
  %5 = getelementptr inbounds nuw i8, ptr %0, i64 16
  store i8 0, ptr %5, align 8, !tbaa !48
  %6 = tail call noundef ptr @_ZNK6icu_7711Formattable9getObjectEv(ptr noundef nonnull align 8 dereferenceable(112) %2)
  %.not = icmp eq ptr %6, null
  br i1 %.not, label %15, label %7

7:                                                ; preds = %4
  %8 = tail call ptr @__dynamic_cast(ptr nonnull %6, ptr nonnull @_ZTIN6icu_777UObjectE, ptr nonnull @_ZTIN6icu_7714CurrencyAmountE, i64 0) #22
  %.not8 = icmp eq ptr %8, null
  br i1 %.not8, label %15, label %9

9:                                                ; preds = %7
  %10 = getelementptr inbounds nuw i8, ptr %0, i64 8
  %11 = tail call noundef nonnull align 8 dereferenceable(28) ptr @_ZNK6icu_7714CurrencyAmount11getCurrencyEv(ptr noundef nonnull align 8 dereferenceable(128) %8)
  %12 = getelementptr inbounds nuw i8, ptr %11, i64 20
  %13 = tail call ptr @u_strcpy_77(ptr noundef nonnull %10, ptr noundef nonnull %12)
  %14 = getelementptr inbounds nuw i8, ptr %8, i64 8
  store ptr %14, ptr %0, align 8, !tbaa !45
  store i8 1, ptr %5, align 8, !tbaa !48
  br label %17

15:                                               ; preds = %7, %4
  %16 = getelementptr inbounds nuw i8, ptr %0, i64 8
  store i16 0, ptr %16, align 8, !tbaa !36
  br label %17

17:                                               ; preds = %15, %9
  ret void
}